; Function Attrs: inlinehint nounwind uwtable
define internal void @phpdbg_sigint_handler(i32 %0) #19 {
  %2 = alloca [4194305 x i8], align 16
  %3 = alloca [1 x %struct.__jmp_buf_tag], align 16
  %4 = load i64, ptr getelementptr inbounds nuw (i8, ptr @phpdbg_globals, i64 2184), align 8, !tbaa !174
  %5 = and i64 %4, 134217728
  %.not = icmp eq i64 %5, 0
  br i1 %.not, label %6, label %25

6:                                                ; preds = %1
  %7 = and i64 %4, 67108864
  %.not1 = icmp eq i64 %7, 0
  br i1 %.not1, label %19, label %8

8:                                                ; preds = %6
  call void @llvm.lifetime.start.p0(i64 4194305, ptr nonnull %2) #27
  call void @phpdbg_set_sigsafe_mem(ptr noundef nonnull %2) #27
  %9 = load ptr, ptr getelementptr inbounds nuw (i8, ptr @executor_globals, i64 416), align 8, !tbaa !207
  call void @llvm.lifetime.start.p0(i64 200, ptr nonnull %3) #27
  store ptr %3, ptr getelementptr inbounds nuw (i8, ptr @executor_globals, i64 416), align 8, !tbaa !207
  %10 = call i32 @__sigsetjmp(ptr noundef nonnull %3, i32 noundef 0) #31
  %11 = icmp eq i32 %10, 0
  br i1 %11, label %12, label %13

12:                                               ; preds = %8
  call void @phpdbg_force_interruption() #27
  br label %13

13:                                               ; preds = %12, %8
  store ptr %9, ptr getelementptr inbounds nuw (i8, ptr @executor_globals, i64 416), align 8, !tbaa !207
  call void @llvm.lifetime.end.p0(i64 200, ptr nonnull %3) #27
  call void @phpdbg_clear_sigsafe_mem() #27
  %14 = load i64, ptr getelementptr inbounds nuw (i8, ptr @phpdbg_globals, i64 2184), align 8, !tbaa !174
  %15 = and i64 %14, -67108865
  store i64 %15, ptr getelementptr inbounds nuw (i8, ptr @phpdbg_globals, i64 2184), align 8, !tbaa !174
  %16 = and i64 %14, 327680
  %.not3 = icmp eq i64 %16, 0
  br i1 %.not3, label %18, label %17

17:                                               ; preds = %13
  call void @_zend_bailout(ptr noundef nonnull @.str.108, i32 noundef 1035) #33
  unreachable

18:                                               ; preds = %13
  call void @llvm.lifetime.end.p0(i64 4194305, ptr nonnull %2) #27
  br label %25

19:                                               ; preds = %6
  %20 = or disjoint i64 %4, 67108864
  store i64 %20, ptr getelementptr inbounds nuw (i8, ptr @phpdbg_globals, i64 2184), align 8, !tbaa !174
  %21 = and i64 %4, 268435456
  %.not2 = icmp eq i64 %21, 0
  br i1 %.not2, label %25, label %22

22:                                               ; preds = %19
  %23 = and i64 %4, -9059696641
  %24 = or disjoint i64 %23, 8657043456
  store i64 %24, ptr getelementptr inbounds nuw (i8, ptr @phpdbg_globals, i64 2184), align 8, !tbaa !174
  br label %25

25:                                               ; preds = %18, %22, %19, %1
  ret void
}